; Function Attrs: mustprogress nounwind uwtable
define void @_ZN6google8protobuf8internal14ArenaStringPtr12ClearToEmptyEv(ptr noundef nonnull readonly align 8 captures(none) dereferenceable(8) %this) local_unnamed_addr #7 align 2 {
entry:
  %0 = load ptr, ptr %this, align 8
  %1 = ptrtoint ptr %0 to i64
  %and.i.i = and i64 %1, 3
  %cmp.i.i = icmp eq i64 %and.i.i, 0
  br i1 %cmp.i.i, label %if.end, label %if.else

if.else:                                          ; preds = %entry
  %and.i = and i64 %1, -4
  %2 = inttoptr i64 %and.i to ptr
  tail call void @_ZNSt7__cxx1112basic_stringIcSt11char_traitsIcESaIcEE5clearEv(ptr noundef nonnull align 8 dereferenceable(32) %2) #10
  br label %if.end

if.end:                                           ; preds = %entry, %if.else
  ret void
}